target datalayout = "e-m:e-p270:32:32-p271:32:32-p272:64:64-i64:64-i128:128-f80:128-n8:16:32:64-S128"
target triple = "x86_64-pc-linux-gnu"

@debug = internal global i32 0, align 4
@stderr = external global ptr, align 8
@psk_key = internal global ptr null, align 8
@.str.266 = private unnamed_addr constant [16 x i8] c"Client_identity\00", align 1
@.str.267 = private unnamed_addr constant [38 x i8] c"client: created identity '%s' len=%d\0A\00", align 1

; Function Attrs: nounwind uwtable
define internal i32 @psk_client_callback(ptr noundef %0, ptr noundef %1, ptr noundef %2, i32 noundef %3, ptr noundef %4, i32 noundef %5) #0 {
  %7 = alloca ptr, align 8
  %8 = alloca ptr, align 8
  %9 = alloca ptr, align 8
  %10 = alloca i32, align 4
  %11 = alloca ptr, align 8
  %12 = alloca i32, align 4
  %13 = alloca i32, align 4
  %14 = alloca i32, align 4
  store ptr %0, ptr %7, align 8, !tbaa !17
  store ptr %1, ptr %8, align 8, !tbaa !11
  store ptr %2, ptr %9, align 8, !tbaa !11
  store i32 %3, ptr %10, align 4, !tbaa !4
  store ptr %4, ptr %11, align 8, !tbaa !11
  store i32 %5, ptr %12, align 4, !tbaa !4
  call void @llvm.lifetime.start.p0(i64 4, ptr %13) #10
  call void @llvm.lifetime.start.p0(i64 4, ptr %14) #10
  store i32 0, ptr %14, align 4, !tbaa !4
  %15 = load ptr, ptr %9, align 8, !tbaa !11
  %16 = load i32, ptr %10, align 4, !tbaa !4
  %17 = zext i32 %16 to i64
  %18 = call i32 (ptr, i64, ptr, ...) @BIO_snprintf(ptr noundef %15, i64 noundef %17, ptr noundef @.str.266)
  store i32 %18, ptr %13, align 4, !tbaa !4
  %19 = load i32, ptr %13, align 4, !tbaa !4
  %20 = icmp slt i32 %19, 0
  br i1 %20, label %21, label %22

21:                                               ; preds = %6
  br label %40

22:                                               ; preds = %6
  %23 = load i32, ptr @debug, align 4, !tbaa !4
  %24 = icmp ne i32 %23, 0
  br i1 %24, label %25, label %30

25:                                               ; preds = %22
  %26 = load ptr, ptr @stderr, align 8, !tbaa !33
  %27 = load ptr, ptr %9, align 8, !tbaa !11
  %28 = load i32, ptr %13, align 4, !tbaa !4
  %29 = call i32 (ptr, ptr, ...) @fprintf(ptr noundef %26, ptr noundef @.str.267, ptr noundef %27, i32 noundef %28) #10
  br label %30

30:                                               ; preds = %25, %22
  %31 = load ptr, ptr @psk_key, align 8, !tbaa !11
  %32 = load ptr, ptr %11, align 8, !tbaa !11
  %33 = load i32, ptr %12, align 4, !tbaa !4
  %34 = call i32 @psk_key2bn(ptr noundef %31, ptr noundef %32, i32 noundef %33)
  store i32 %34, ptr %13, align 4, !tbaa !4
  %35 = load i32, ptr %13, align 4, !tbaa !4
  %36 = icmp slt i32 %35, 0
  br i1 %36, label %37, label %38

37:                                               ; preds = %30
  br label %40

38:                                               ; preds = %30
  %39 = load i32, ptr %13, align 4, !tbaa !4
  store i32 %39, ptr %14, align 4, !tbaa !4
  br label %40

40:                                               ; preds = %38, %37, %21
  %41 = load i32, ptr %14, align 4, !tbaa !4
  call void @llvm.lifetime.end.p0(i64 4, ptr %14) #10
  call void @llvm.lifetime.end.p0(i64 4, ptr %13) #10
  ret i32 %41
}