; Function Attrs: nounwind uwtable
define internal range(i32 0, -2147483648) i32 @psk_client_callback(ptr readnone captures(none) %0, ptr readnone captures(none) %1, ptr noundef %2, i32 noundef %3, ptr noundef %4, i32 noundef %5) #7 {
  %7 = zext i32 %3 to i64
  %8 = tail call i32 (ptr, i64, ptr, ...) @BIO_snprintf(ptr noundef %2, i64 noundef %7, ptr noundef nonnull @.str.266) #23
  %9 = icmp slt i32 %8, 0
  br i1 %9, label %17, label %10

10:                                               ; preds = %6
  %.b = load i1, ptr @debug, align 4
  br i1 %.b, label %11, label %14

11:                                               ; preds = %10
  %12 = load ptr, ptr @stderr, align 8, !tbaa !17
  %13 = tail call i32 (ptr, ptr, ...) @fprintf(ptr noundef %12, ptr noundef nonnull @.str.267, ptr noundef %2, i32 noundef %8) #26
  br label %14

14:                                               ; preds = %11, %10
  %15 = load ptr, ptr @psk_key, align 8, !tbaa !21
  %16 = tail call fastcc i32 @psk_key2bn(ptr noundef %15, ptr noundef %4, i32 noundef %5)
  %spec.select = tail call i32 @llvm.smax.i32(i32 %16, i32 0)
  br label %17

17:                                               ; preds = %14, %6
  %.0 = phi i32 [ 0, %6 ], [ %spec.select, %14 ]
  ret i32 %.0
}